; Function Attrs: mustprogress uwtable
define internal fastcc noundef range(i32 -1, 1) i32 @_ZL40do_setsockopt_string_allow_empty_relaxedPKvmPNSt7__cxx1112basic_stringIcSt11char_traitsIcESaIcEEEm(ptr noundef %0, i64 noundef %1, ptr noundef nonnull %2) unnamed_addr #6 {
  %4 = add i64 %1, -1
  %or.cond = icmp ult i64 %4, 255
  br i1 %or.cond, label %5, label %9

5:                                                ; preds = %3
  %6 = getelementptr inbounds nuw i8, ptr %2, i64 8
  %7 = load i64, ptr %6, align 8, !tbaa !3
  %8 = tail call noundef nonnull align 8 dereferenceable(32) ptr @_ZNSt7__cxx1112basic_stringIcSt11char_traitsIcESaIcEE10_M_replaceEmmPKcm(ptr noundef nonnull align 8 dereferenceable(32) %2, i64 noundef 0, i64 noundef %7, ptr noundef %0, i64 noundef %1)
  br label %11

9:                                                ; preds = %3
  %10 = tail call ptr @__errno_location() #22
  store i32 22, ptr %10, align 4, !tbaa !12
  br label %11

11:                                               ; preds = %9, %5
  %.0 = phi i32 [ 0, %5 ], [ -1, %9 ]
  ret i32 %.0
}